; ModuleID = '24/2524.c'
source_filename = "24/2524.c"
target datalayout = "e-m:e-p270:32:32-p271:32:32-p272:64:64-i64:64-f80:128-n8:16:32:64-S128"
target triple = "x86_64-pc-linux-gnu"

@.str = private unnamed_addr constant [4 x i8] c"%d\0A\00", align 1
@.str.1 = private unnamed_addr constant [3 x i8] c"%c\00", align 1
@.str.2 = private unnamed_addr constant [2 x i8] c"\0A\00", align 1

; Function Attrs: noinline nounwind uwtable
define dso_local i32 @main() #0 {
  %1 = alloca i32, align 4
  %2 = alloca i32, align 4
  %3 = alloca i32, align 4
  %4 = alloca i32, align 4
  %5 = alloca i32, align 4
  %6 = alloca i32, align 4
  %7 = alloca i32, align 4
  %8 = alloca i32, align 4
  %9 = alloca i32, align 4
  %10 = alloca i32, align 4
  %11 = alloca i32, align 4
  %12 = alloca i32, align 4
  %13 = alloca i32, align 4
  %14 = alloca [1000 x i8], align 16
  store i32 0, i32* %1, align 4
  store i32 0, i32* %2, align 4
  store i32 -1, i32* %7, align 4
  store i32 100, i32* %8, align 4
  %15 = call i32 (i8*, ...) @__isoc99_scanf(i8* getelementptr inbounds ([4 x i8], [4 x i8]* @.str, i64 0, i64 0), i32* %11)
  %16 = getelementptr inbounds [1000 x i8], [1000 x i8]* %14, i64 0, i64 0
  %17 = call i32 (i8*, ...) bitcast (i32 (...)* @gets to i32 (i8*, ...)*)(i8* %16)
  %18 = getelementptr inbounds [1000 x i8], [1000 x i8]* %14, i64 0, i64 0
  %19 = call i64 @strlen(i8* %18) #3
  %20 = trunc i64 %19 to i32
  store i32 %20, i32* %10, align 4
  br label %21

21:                                               ; preds = %62, %0
  %22 = load i32, i32* %2, align 4
  %23 = load i32, i32* %10, align 4
  %24 = icmp slt i32 %22, %23
  br i1 %24, label %25, label %65

25:                                               ; preds = %21
  %26 = load i32, i32* %2, align 4
  store i32 %26, i32* %12, align 4
  br label %27

27:                                               ; preds = %40, %25
  %28 = load i32, i32* %12, align 4
  %29 = load i32, i32* %10, align 4
  %30 = icmp slt i32 %28, %29
  br i1 %30, label %31, label %38

31:                                               ; preds = %27
  %32 = load i32, i32* %12, align 4
  %33 = sext i32 %32 to i64
  %34 = getelementptr inbounds [1000 x i8], [1000 x i8]* %14, i64 0, i64 %33
  %35 = load i8, i8* %34, align 1
  %36 = sext i8 %35 to i32
  %37 = icmp ne i32 %36, 32
  br label %38

38:                                               ; preds = %31, %27
  %39 = phi i1 [ false, %27 ], [ %37, %31 ]
  br i1 %39, label %40, label %43

40:                                               ; preds = %38
  %41 = load i32, i32* %12, align 4
  %42 = add nsw i32 %41, 1
  store i32 %42, i32* %12, align 4
  br label %27

43:                                               ; preds = %38
  %44 = load i32, i32* %12, align 4
  %45 = load i32, i32* %2, align 4
  %46 = sub nsw i32 %44, %45
  store i32 %46, i32* %9, align 4
  %47 = load i32, i32* %7, align 4
  %48 = load i32, i32* %9, align 4
  %49 = icmp slt i32 %47, %48
  br i1 %49, label %50, label %54

50:                                               ; preds = %43
  %51 = load i32, i32* %2, align 4
  store i32 %51, i32* %3, align 4
  %52 = load i32, i32* %12, align 4
  store i32 %52, i32* %4, align 4
  %53 = load i32, i32* %9, align 4
  store i32 %53, i32* %7, align 4
  br label %54

54:                                               ; preds = %50, %43
  %55 = load i32, i32* %8, align 4
  %56 = load i32, i32* %9, align 4
  %57 = icmp sgt i32 %55, %56
  br i1 %57, label %58, label %62

58:                                               ; preds = %54
  %59 = load i32, i32* %2, align 4
  store i32 %59, i32* %5, align 4
  %60 = load i32, i32* %12, align 4
  store i32 %60, i32* %6, align 4
  %61 = load i32, i32* %9, align 4
  store i32 %61, i32* %8, align 4
  br label %62

62:                                               ; preds = %58, %54
  %63 = load i32, i32* %12, align 4
  %64 = add nsw i32 %63, 1
  store i32 %64, i32* %2, align 4
  br label %21

65:                                               ; preds = %21
  %66 = load i32, i32* %3, align 4
  store i32 %66, i32* %13, align 4
  br label %67

67:                                               ; preds = %78, %65
  %68 = load i32, i32* %13, align 4
  %69 = load i32, i32* %4, align 4
  %70 = icmp slt i32 %68, %69
  br i1 %70, label %71, label %81

71:                                               ; preds = %67
  %72 = load i32, i32* %13, align 4
  %73 = sext i32 %72 to i64
  %74 = getelementptr inbounds [1000 x i8], [1000 x i8]* %14, i64 0, i64 %73
  %75 = load i8, i8* %74, align 1
  %76 = sext i8 %75 to i32
  %77 = call i32 (i8*, ...) @printf(i8* getelementptr inbounds ([3 x i8], [3 x i8]* @.str.1, i64 0, i64 0), i32 %76)
  br label %78

78:                                               ; preds = %71
  %79 = load i32, i32* %13, align 4
  %80 = add nsw i32 %79, 1
  store i32 %80, i32* %13, align 4
  br label %67

81:                                               ; preds = %67
  %82 = call i32 (i8*, ...) @printf(i8* getelementptr inbounds ([2 x i8], [2 x i8]* @.str.2, i64 0, i64 0))
  %83 = load i32, i32* %5, align 4
  store i32 %83, i32* %13, align 4
  br label %84

84:                                               ; preds = %95, %81
  %85 = load i32, i32* %13, align 4
  %86 = load i32, i32* %6, align 4
  %87 = icmp slt i32 %85, %86
  br i1 %87, label %88, label %98

88:                                               ; preds = %84
  %89 = load i32, i32* %13, align 4
  %90 = sext i32 %89 to i64
  %91 = getelementptr inbounds [1000 x i8], [1000 x i8]* %14, i64 0, i64 %90
  %92 = load i8, i8* %91, align 1
  %93 = sext i8 %92 to i32
  %94 = call i32 (i8*, ...) @printf(i8* getelementptr inbounds ([3 x i8], [3 x i8]* @.str.1, i64 0, i64 0), i32 %93)
  br label %95

95:                                               ; preds = %88
  %96 = load i32, i32* %13, align 4
  %97 = add nsw i32 %96, 1
  store i32 %97, i32* %13, align 4
  br label %84

98:                                               ; preds = %84
  ret i32 0
}

declare dso_local i32 @__isoc99_scanf(i8*, ...) #1

declare dso_local i32 @gets(...) #1

; Function Attrs: nounwind readonly
declare dso_local i64 @strlen(i8*) #2

declare dso_local i32 @printf(i8*, ...) #1


!llvm.module.flags = !{!0}
!llvm.ident = !{!1}

!0 = !{i32 1, !"wchar_size", i32 4}
!1 = !{!"clang version 10.0.0-4ubuntu1 "}
